---
triple:          'arm64-apple-darwin'
binary-path:     Attack
relocations:
  - { offsetInCU: 0x3B, offset: 0x3B, size: 0x8, addend: 0x0, symName: _.str, symObjAddr: 0xAE0, symBinAddr: 0x100006660, symSize: 0x0 }
  - { offsetInCU: 0x6B, offset: 0x6B, size: 0x8, addend: 0x0, symName: _.str.1, symObjAddr: 0xB00, symBinAddr: 0x100006680, symSize: 0x0 }
  - { offsetInCU: 0x7C, offset: 0x7C, size: 0x8, addend: 0x0, symName: _.str.2, symObjAddr: 0xB20, symBinAddr: 0x1000066A0, symSize: 0x0 }
  - { offsetInCU: 0x2E02, offset: 0x2E02, size: 0x8, addend: 0x0, symName: __ZNSt3__119__debug_db_insert_cB7v160006INS_12basic_stringIcNS_11char_traitsIcEENS_9allocatorIcEEEEEEvPT_, symObjAddr: 0x8C8, symBinAddr: 0x100002BEC, symSize: 0x10 }
  - { offsetInCU: 0x2E33, offset: 0x2E33, size: 0x8, addend: 0x0, symName: __ZNSt3__118__constexpr_strlenB7v160006EPKc, symObjAddr: 0x994, symBinAddr: 0x100002CB8, symSize: 0x24 }
  - { offsetInCU: 0x5103, offset: 0x5103, size: 0x8, addend: 0x0, symName: _main, symObjAddr: 0x0, symBinAddr: 0x100002324, symSize: 0x578 }
  - { offsetInCU: 0x5147, offset: 0x5147, size: 0x8, addend: 0x0, symName: __ZNSt3__112basic_stringIcNS_11char_traitsIcEENS_9allocatorIcEEEC1B7v160006IDnEEPKc, symObjAddr: 0x578, symBinAddr: 0x10000289C, symSize: 0x34 }
  - { offsetInCU: 0x518D, offset: 0x518D, size: 0x8, addend: 0x0, symName: __ZN6WeaponC1ERKS_, symObjAddr: 0x5B8, symBinAddr: 0x1000028DC, symSize: 0x34 }
  - { offsetInCU: 0x51BF, offset: 0x51BF, size: 0x8, addend: 0x0, symName: __ZN6WeaponC2ERKS_, symObjAddr: 0x5EC, symBinAddr: 0x100002910, symSize: 0x34 }
  - { offsetInCU: 0x51F1, offset: 0x51F1, size: 0x8, addend: 0x0, symName: __ZNSt3__112basic_stringIcNS_11char_traitsIcEENS_9allocatorIcEEEC2B7v160006IDnEEPKc, symObjAddr: 0x620, symBinAddr: 0x100002944, symSize: 0x218 }
  - { offsetInCU: 0x5234, offset: 0x5234, size: 0x8, addend: 0x0, symName: __ZNSt3__117__compressed_pairINS_12basic_stringIcNS_11char_traitsIcEENS_9allocatorIcEEE5__repES5_EC1B7v160006INS_18__default_init_tagESA_EEOT_OT0_, symObjAddr: 0x838, symBinAddr: 0x100002B5C, symSize: 0x3C }
  - { offsetInCU: 0x528A, offset: 0x528A, size: 0x8, addend: 0x0, symName: __ZNSt3__111char_traitsIcE6lengthEPKc, symObjAddr: 0x874, symBinAddr: 0x100002B98, symSize: 0x54 }
  - { offsetInCU: 0x52AC, offset: 0x52AC, size: 0x8, addend: 0x0, symName: __ZNSt3__117__compressed_pairINS_12basic_stringIcNS_11char_traitsIcEENS_9allocatorIcEEE5__repES5_EC2B7v160006INS_18__default_init_tagESA_EEOT_OT0_, symObjAddr: 0x8D8, symBinAddr: 0x100002BFC, symSize: 0x3C }
  - { offsetInCU: 0x5302, offset: 0x5302, size: 0x8, addend: 0x0, symName: __ZNSt3__122__compressed_pair_elemINS_12basic_stringIcNS_11char_traitsIcEENS_9allocatorIcEEE5__repELi0ELb0EEC2B7v160006ENS_18__default_init_tagE, symObjAddr: 0x914, symBinAddr: 0x100002C38, symSize: 0x14 }
  - { offsetInCU: 0x5334, offset: 0x5334, size: 0x8, addend: 0x0, symName: __ZNSt3__122__compressed_pair_elemINS_9allocatorIcEELi1ELb1EEC2B7v160006ENS_18__default_init_tagE, symObjAddr: 0x928, symBinAddr: 0x100002C4C, symSize: 0x2C }
  - { offsetInCU: 0x5366, offset: 0x5366, size: 0x8, addend: 0x0, symName: __ZNSt3__19allocatorIcEC2B7v160006Ev, symObjAddr: 0x954, symBinAddr: 0x100002C78, symSize: 0x2C }
  - { offsetInCU: 0x538E, offset: 0x538E, size: 0x8, addend: 0x0, symName: __ZNSt3__116__non_trivial_ifILb1ENS_9allocatorIcEEEC2B7v160006Ev, symObjAddr: 0x980, symBinAddr: 0x100002CA4, symSize: 0x14 }
  - { offsetInCU: 0x3B, offset: 0x5472, size: 0x8, addend: 0x0, symName: _.str, symObjAddr: 0x3180, symBinAddr: 0x1000066C0, symSize: 0x0 }
  - { offsetInCU: 0x29B5, offset: 0x7DEC, size: 0x8, addend: 0x0, symName: __ZNSt3__124__put_character_sequenceB7v160006IcNS_11char_traitsIcEEEERNS_13basic_ostreamIT_T0_EES7_PKS4_m, symObjAddr: 0xED8, symBinAddr: 0x100003B38, symSize: 0x74C }
  - { offsetInCU: 0x42F3, offset: 0x972A, size: 0x8, addend: 0x0, symName: __ZNSt3__1lsB7v160006IcNS_11char_traitsIcEENS_9allocatorIcEEEERNS_13basic_ostreamIT_T0_EES9_RKNS_12basic_stringIS6_S7_T1_EE, symObjAddr: 0x2E4, symBinAddr: 0x10000304C, symSize: 0x4C }
  - { offsetInCU: 0x434B, offset: 0x9782, size: 0x8, addend: 0x0, symName: __ZNSt3__1lsB7v160006INS_11char_traitsIcEEEERNS_13basic_ostreamIcT_EES6_PKc, symObjAddr: 0x330, symBinAddr: 0x100003098, symSize: 0x48 }
  - { offsetInCU: 0x4391, offset: 0x97C8, size: 0x8, addend: 0x0, symName: __ZNSt3__14endlB7v160006IcNS_11char_traitsIcEEEERNS_13basic_ostreamIT_T0_EES7_, symObjAddr: 0x3A4, symBinAddr: 0x10000310C, symSize: 0xD4 }
  - { offsetInCU: 0x43D1, offset: 0x9808, size: 0x8, addend: 0x0, symName: __ZNSt3__130__libcpp_is_constant_evaluatedB7v160006Ev, symObjAddr: 0xA38, symBinAddr: 0x100003698, symSize: 0xC }
  - { offsetInCU: 0x43EE, offset: 0x9825, size: 0x8, addend: 0x0, symName: __ZNSt3__117__libcpp_allocateB7v160006Emm, symObjAddr: 0xE40, symBinAddr: 0x100003AA0, symSize: 0x28 }
  - { offsetInCU: 0x442B, offset: 0x9862, size: 0x8, addend: 0x0, symName: __ZNSt3__121__libcpp_operator_newB7v160006IJmEEEPvDpT_, symObjAddr: 0xE7C, symBinAddr: 0x100003ADC, symSize: 0x24 }
  - { offsetInCU: 0x4464, offset: 0x989B, size: 0x8, addend: 0x0, symName: __ZNSt3__116__pad_and_outputB7v160006IcNS_11char_traitsIcEEEENS_19ostreambuf_iteratorIT_T0_EES6_PKS4_S8_S8_RNS_8ios_baseES4_, symObjAddr: 0x1728, symBinAddr: 0x100004388, symSize: 0x774 }
  - { offsetInCU: 0x4541, offset: 0x9978, size: 0x8, addend: 0x0, symName: __ZNSt3__19use_facetB7v160006INS_5ctypeIcEEEERKT_RKNS_6localeE, symObjAddr: 0x2A48, symBinAddr: 0x1000056A8, symSize: 0x2C }
  - { offsetInCU: 0x4A10, offset: 0x9E47, size: 0x8, addend: 0x0, symName: __ZNSt3__112__to_addressB7v160006IKcEEPT_S3_, symObjAddr: 0x2BCC, symBinAddr: 0x10000582C, symSize: 0x14 }
  - { offsetInCU: 0x4A79, offset: 0x9EB0, size: 0x8, addend: 0x0, symName: __ZSt28__throw_bad_array_new_lengthB7v160006v, symObjAddr: 0xE08, symBinAddr: 0x100003A68, symSize: 0x38 }
  - { offsetInCU: 0x6B9F, offset: 0xBFD6, size: 0x8, addend: 0x0, symName: __ZN6HumanAC2Ev, symObjAddr: 0x0, symBinAddr: 0x100002D74, symSize: 0x74 }
  - { offsetInCU: 0x6BC9, offset: 0xC000, size: 0x8, addend: 0x0, symName: __ZNSt3__112basic_stringIcNS_11char_traitsIcEENS_9allocatorIcEEEC1B7v160006Ev, symObjAddr: 0x74, symBinAddr: 0x100002DE8, symSize: 0x2C }
  - { offsetInCU: 0x6BF1, offset: 0xC028, size: 0x8, addend: 0x0, symName: __ZN6HumanAC1Ev, symObjAddr: 0xAC, symBinAddr: 0x100002E14, symSize: 0x2C }
  - { offsetInCU: 0x6C1B, offset: 0xC052, size: 0x8, addend: 0x0, symName: __ZN6HumanAC2ENSt3__112basic_stringIcNS0_11char_traitsIcEENS0_9allocatorIcEEEE6Weapon, symObjAddr: 0xD8, symBinAddr: 0x100002E40, symSize: 0xDC }
  - { offsetInCU: 0x6C63, offset: 0xC09A, size: 0x8, addend: 0x0, symName: __ZN6HumanAC1ENSt3__112basic_stringIcNS0_11char_traitsIcEENS0_9allocatorIcEEEE6Weapon, symObjAddr: 0x1B4, symBinAddr: 0x100002F1C, symSize: 0x3C }
  - { offsetInCU: 0x6CAB, offset: 0xC0E2, size: 0x8, addend: 0x0, symName: __ZN6HumanAD2Ev, symObjAddr: 0x1F0, symBinAddr: 0x100002F58, symSize: 0x74 }
  - { offsetInCU: 0x6CD5, offset: 0xC10C, size: 0x8, addend: 0x0, symName: __ZN6HumanAD1Ev, symObjAddr: 0x264, symBinAddr: 0x100002FCC, symSize: 0x2C }
  - { offsetInCU: 0x6CFF, offset: 0xC136, size: 0x8, addend: 0x0, symName: __ZN6HumanA6attackEv, symObjAddr: 0x290, symBinAddr: 0x100002FF8, symSize: 0x54 }
  - { offsetInCU: 0x6D26, offset: 0xC15D, size: 0x8, addend: 0x0, symName: __ZNSt3__113basic_ostreamIcNS_11char_traitsIcEEElsB7v160006EPFRS3_S4_E, symObjAddr: 0x378, symBinAddr: 0x1000030E0, symSize: 0x2C }
  - { offsetInCU: 0x6D59, offset: 0xC190, size: 0x8, addend: 0x0, symName: __ZNSt3__112basic_stringIcNS_11char_traitsIcEENS_9allocatorIcEEEC2B7v160006Ev, symObjAddr: 0x478, symBinAddr: 0x1000031E0, symSize: 0x1FC }
  - { offsetInCU: 0x6D82, offset: 0xC1B9, size: 0x8, addend: 0x0, symName: __ZNSt3__112basic_stringIcNS_11char_traitsIcEENS_9allocatorIcEEE14__default_initB7v160006Ev, symObjAddr: 0x6C0, symBinAddr: 0x1000033DC, symSize: 0x298 }
  - { offsetInCU: 0x6DD7, offset: 0xC20E, size: 0x8, addend: 0x0, symName: __ZNSt3__117__compressed_pairINS_12basic_stringIcNS_11char_traitsIcEENS_9allocatorIcEEE5__repES5_E5firstB7v160006Ev, symObjAddr: 0xA14, symBinAddr: 0x100003674, symSize: 0x24 }
  - { offsetInCU: 0x6DFC, offset: 0xC233, size: 0x8, addend: 0x0, symName: __ZNSt3__112basic_stringIcNS_11char_traitsIcEENS_9allocatorIcEEE11__recommendB7v160006Em, symObjAddr: 0xA44, symBinAddr: 0x1000036A4, symSize: 0x9C }
  - { offsetInCU: 0x6E2E, offset: 0xC265, size: 0x8, addend: 0x0, symName: __ZNSt3__116allocator_traitsINS_9allocatorIcEEE8allocateB7v160006ERS2_m, symObjAddr: 0xAE0, symBinAddr: 0x100003740, symSize: 0x2C }
  - { offsetInCU: 0x6E60, offset: 0xC297, size: 0x8, addend: 0x0, symName: __ZNSt3__112basic_stringIcNS_11char_traitsIcEENS_9allocatorIcEEE7__allocB7v160006Ev, symObjAddr: 0xB0C, symBinAddr: 0x10000376C, symSize: 0x24 }
  - { offsetInCU: 0x6E85, offset: 0xC2BC, size: 0x8, addend: 0x0, symName: __ZNSt3__112basic_stringIcNS_11char_traitsIcEENS_9allocatorIcEEE16__begin_lifetimeB7v160006EPcm, symObjAddr: 0xB30, symBinAddr: 0x100003790, symSize: 0x14 }
  - { offsetInCU: 0x6EB8, offset: 0xC2EF, size: 0x8, addend: 0x0, symName: __ZNSt3__112basic_stringIcNS_11char_traitsIcEENS_9allocatorIcEEE18__set_long_pointerB7v160006EPc, symObjAddr: 0xB44, symBinAddr: 0x1000037A4, symSize: 0x7C }
  - { offsetInCU: 0x6EEC, offset: 0xC323, size: 0x8, addend: 0x0, symName: __ZNSt3__112basic_stringIcNS_11char_traitsIcEENS_9allocatorIcEEE14__set_long_capB7v160006Em, symObjAddr: 0xBC0, symBinAddr: 0x100003820, symSize: 0xEC }
  - { offsetInCU: 0x6F20, offset: 0xC357, size: 0x8, addend: 0x0, symName: __ZNSt3__112basic_stringIcNS_11char_traitsIcEENS_9allocatorIcEEE15__set_long_sizeB7v160006Em, symObjAddr: 0xCAC, symBinAddr: 0x10000390C, symSize: 0x80 }
  - { offsetInCU: 0x6F55, offset: 0xC38C, size: 0x8, addend: 0x0, symName: __ZNSt3__122__compressed_pair_elemINS_12basic_stringIcNS_11char_traitsIcEENS_9allocatorIcEEE5__repELi0ELb0EE5__getB7v160006Ev, symObjAddr: 0xD2C, symBinAddr: 0x10000398C, symSize: 0x14 }
  - { offsetInCU: 0x6F79, offset: 0xC3B0, size: 0x8, addend: 0x0, symName: __ZNSt3__112basic_stringIcNS_11char_traitsIcEENS_9allocatorIcEEE10__align_itB7v160006ILm16EEEmm, symObjAddr: 0xD40, symBinAddr: 0x1000039A0, symSize: 0x1C }
  - { offsetInCU: 0x6FA7, offset: 0xC3DE, size: 0x8, addend: 0x0, symName: __ZNSt3__19allocatorIcE8allocateB7v160006Em, symObjAddr: 0xD5C, symBinAddr: 0x1000039BC, symSize: 0x88 }
  - { offsetInCU: 0x6FE4, offset: 0xC41B, size: 0x8, addend: 0x0, symName: __ZNSt3__116allocator_traitsINS_9allocatorIcEEE8max_sizeB7v160006IS2_vEEmRKS2_, symObjAddr: 0xDE4, symBinAddr: 0x100003A44, symSize: 0x24 }
  - { offsetInCU: 0x7012, offset: 0xC449, size: 0x8, addend: 0x0, symName: __ZNKSt3__19allocatorIcE8max_sizeB7v160006Ev, symObjAddr: 0xE68, symBinAddr: 0x100003AC8, symSize: 0x14 }
  - { offsetInCU: 0x7036, offset: 0xC46D, size: 0x8, addend: 0x0, symName: __ZNSt3__117__compressed_pairINS_12basic_stringIcNS_11char_traitsIcEENS_9allocatorIcEEE5__repES5_E6secondB7v160006Ev, symObjAddr: 0xEA0, symBinAddr: 0x100003B00, symSize: 0x24 }
  - { offsetInCU: 0x705C, offset: 0xC493, size: 0x8, addend: 0x0, symName: __ZNSt3__122__compressed_pair_elemINS_9allocatorIcEELi1ELb1EE5__getB7v160006Ev, symObjAddr: 0xEC4, symBinAddr: 0x100003B24, symSize: 0x14 }
  - { offsetInCU: 0x7080, offset: 0xC4B7, size: 0x8, addend: 0x0, symName: __ZNKSt3__112basic_stringIcNS_11char_traitsIcEENS_9allocatorIcEEE4dataB7v160006Ev, symObjAddr: 0x1624, symBinAddr: 0x100004284, symSize: 0x28 }
  - { offsetInCU: 0x70A5, offset: 0xC4DC, size: 0x8, addend: 0x0, symName: __ZNKSt3__112basic_stringIcNS_11char_traitsIcEENS_9allocatorIcEEE4sizeB7v160006Ev, symObjAddr: 0x164C, symBinAddr: 0x1000042AC, symSize: 0x54 }
  - { offsetInCU: 0x70E8, offset: 0xC51F, size: 0x8, addend: 0x0, symName: __ZNKSt3__113basic_ostreamIcNS_11char_traitsIcEEE6sentrycvbB7v160006Ev, symObjAddr: 0x16A0, symBinAddr: 0x100004300, symSize: 0x88 }
  - { offsetInCU: 0x710D, offset: 0xC544, size: 0x8, addend: 0x0, symName: __ZNSt3__119ostreambuf_iteratorIcNS_11char_traitsIcEEEC1B7v160006ERNS_13basic_ostreamIcS2_EE, symObjAddr: 0x1E9C, symBinAddr: 0x100004AFC, symSize: 0x34 }
  - { offsetInCU: 0x7144, offset: 0xC57B, size: 0x8, addend: 0x0, symName: __ZNKSt3__18ios_base5flagsB7v160006Ev, symObjAddr: 0x1ED0, symBinAddr: 0x100004B30, symSize: 0x8C }
  - { offsetInCU: 0x716B, offset: 0xC5A2, size: 0x8, addend: 0x0, symName: __ZNKSt3__19basic_iosIcNS_11char_traitsIcEEE4fillB7v160006Ev, symObjAddr: 0x1F5C, symBinAddr: 0x100004BBC, symSize: 0x198 }
  - { offsetInCU: 0x7191, offset: 0xC5C8, size: 0x8, addend: 0x0, symName: __ZNKSt3__119ostreambuf_iteratorIcNS_11char_traitsIcEEE6failedB7v160006Ev, symObjAddr: 0x20F4, symBinAddr: 0x100004D54, symSize: 0x6C }
  - { offsetInCU: 0x71B6, offset: 0xC5ED, size: 0x8, addend: 0x0, symName: __ZNSt3__19basic_iosIcNS_11char_traitsIcEEE8setstateB7v160006Ej, symObjAddr: 0x2160, symBinAddr: 0x100004DC0, symSize: 0x2C }
  - { offsetInCU: 0x71EB, offset: 0xC622, size: 0x8, addend: 0x0, symName: __ZNKSt3__18ios_base5widthB7v160006Ev, symObjAddr: 0x218C, symBinAddr: 0x100004DEC, symSize: 0x64 }
  - { offsetInCU: 0x7211, offset: 0xC648, size: 0x8, addend: 0x0, symName: __ZNSt3__115basic_streambufIcNS_11char_traitsIcEEE5sputnB7v160006EPKcl, symObjAddr: 0x21F0, symBinAddr: 0x100004E50, symSize: 0xC8 }
  - { offsetInCU: 0x7252, offset: 0xC689, size: 0x8, addend: 0x0, symName: __ZNSt3__112basic_stringIcNS_11char_traitsIcEENS_9allocatorIcEEEC1B7v160006Emc, symObjAddr: 0x22B8, symBinAddr: 0x100004F18, symSize: 0x3C }
  - { offsetInCU: 0x7299, offset: 0xC6D0, size: 0x8, addend: 0x0, symName: __ZNSt3__18ios_base5widthB7v160006El, symObjAddr: 0x22F4, symBinAddr: 0x100004F54, symSize: 0xB8 }
  - { offsetInCU: 0x72DD, offset: 0xC714, size: 0x8, addend: 0x0, symName: __ZNSt3__112basic_stringIcNS_11char_traitsIcEENS_9allocatorIcEEEC2B7v160006Emc, symObjAddr: 0x23AC, symBinAddr: 0x10000500C, symSize: 0x20C }
  - { offsetInCU: 0x7326, offset: 0xC75D, size: 0x8, addend: 0x0, symName: __ZNSt3__119ostreambuf_iteratorIcNS_11char_traitsIcEEEC2B7v160006ERNS_13basic_ostreamIcS2_EE, symObjAddr: 0x25B8, symBinAddr: 0x100005218, symSize: 0x120 }
  - { offsetInCU: 0x735D, offset: 0xC794, size: 0x8, addend: 0x0, symName: __ZNKSt3__19basic_iosIcNS_11char_traitsIcEEE5rdbufB7v160006Ev, symObjAddr: 0x26D8, symBinAddr: 0x100005338, symSize: 0x24 }
  - { offsetInCU: 0x7383, offset: 0xC7BA, size: 0x8, addend: 0x0, symName: __ZNKSt3__18ios_base5rdbufB7v160006Ev, symObjAddr: 0x26FC, symBinAddr: 0x10000535C, symSize: 0x64 }
  - { offsetInCU: 0x73A8, offset: 0xC7DF, size: 0x8, addend: 0x0, symName: __ZNSt3__111char_traitsIcE11eq_int_typeEii, symObjAddr: 0x2760, symBinAddr: 0x1000053C0, symSize: 0x28 }
  - { offsetInCU: 0x73DA, offset: 0xC811, size: 0x8, addend: 0x0, symName: __ZNSt3__111char_traitsIcE3eofEv, symObjAddr: 0x2788, symBinAddr: 0x1000053E8, symSize: 0x8 }
  - { offsetInCU: 0x73EE, offset: 0xC825, size: 0x8, addend: 0x0, symName: __ZNKSt3__19basic_iosIcNS_11char_traitsIcEEE5widenB7v160006Ec, symObjAddr: 0x2790, symBinAddr: 0x1000053F0, symSize: 0x2B8 }
  - { offsetInCU: 0x745C, offset: 0xC893, size: 0x8, addend: 0x0, symName: __ZNKSt3__15ctypeIcE5widenB7v160006Ec, symObjAddr: 0x2A74, symBinAddr: 0x1000056D4, symSize: 0xBC }
  - { offsetInCU: 0x7491, offset: 0xC8C8, size: 0x8, addend: 0x0, symName: __ZNSt3__18ios_base8setstateB7v160006Ej, symObjAddr: 0x2B30, symBinAddr: 0x100005790, symSize: 0x9C }
  - { offsetInCU: 0x74C6, offset: 0xC8FD, size: 0x8, addend: 0x0, symName: __ZNKSt3__112basic_stringIcNS_11char_traitsIcEENS_9allocatorIcEEE13__get_pointerB7v160006Ev, symObjAddr: 0x2BE0, symBinAddr: 0x100005840, symSize: 0x54 }
  - { offsetInCU: 0x74EB, offset: 0xC922, size: 0x8, addend: 0x0, symName: __ZNKSt3__112basic_stringIcNS_11char_traitsIcEENS_9allocatorIcEEE9__is_longB7v160006Ev, symObjAddr: 0x2C34, symBinAddr: 0x100005894, symSize: 0xE0 }
  - { offsetInCU: 0x7510, offset: 0xC947, size: 0x8, addend: 0x0, symName: __ZNKSt3__112basic_stringIcNS_11char_traitsIcEENS_9allocatorIcEEE18__get_long_pointerB7v160006Ev, symObjAddr: 0x2D14, symBinAddr: 0x100005974, symSize: 0x6C }
  - { offsetInCU: 0x7535, offset: 0xC96C, size: 0x8, addend: 0x0, symName: __ZNKSt3__112basic_stringIcNS_11char_traitsIcEENS_9allocatorIcEEE19__get_short_pointerB7v160006Ev, symObjAddr: 0x2D80, symBinAddr: 0x1000059E0, symSize: 0x28 }
  - { offsetInCU: 0x755A, offset: 0xC991, size: 0x8, addend: 0x0, symName: __ZNKSt3__117__compressed_pairINS_12basic_stringIcNS_11char_traitsIcEENS_9allocatorIcEEE5__repES5_E5firstB7v160006Ev, symObjAddr: 0x2DA8, symBinAddr: 0x100005A08, symSize: 0x24 }
  - { offsetInCU: 0x7580, offset: 0xC9B7, size: 0x8, addend: 0x0, symName: __ZNKSt3__122__compressed_pair_elemINS_12basic_stringIcNS_11char_traitsIcEENS_9allocatorIcEEE5__repELi0ELb0EE5__getB7v160006Ev, symObjAddr: 0x2DCC, symBinAddr: 0x100005A2C, symSize: 0x14 }
  - { offsetInCU: 0x75A4, offset: 0xC9DB, size: 0x8, addend: 0x0, symName: __ZNSt3__114pointer_traitsIPKcE10pointer_toB7v160006ERS1_, symObjAddr: 0x2DE0, symBinAddr: 0x100005A40, symSize: 0x14 }
  - { offsetInCU: 0x75C7, offset: 0xC9FE, size: 0x8, addend: 0x0, symName: __ZNKSt3__112basic_stringIcNS_11char_traitsIcEENS_9allocatorIcEEE15__get_long_sizeB7v160006Ev, symObjAddr: 0x2DF4, symBinAddr: 0x100005A54, symSize: 0x70 }
  - { offsetInCU: 0x75EC, offset: 0xCA23, size: 0x8, addend: 0x0, symName: __ZNKSt3__112basic_stringIcNS_11char_traitsIcEENS_9allocatorIcEEE16__get_short_sizeB7v160006Ev, symObjAddr: 0x2E64, symBinAddr: 0x100005AC4, symSize: 0xA0 }
  - { offsetInCU: 0x3B, offset: 0xCAD8, size: 0x8, addend: 0x0, symName: _.str, symObjAddr: 0x2540, symBinAddr: 0x100006700, symSize: 0x0 }
  - { offsetInCU: 0x4577, offset: 0x11014, size: 0x8, addend: 0x0, symName: __ZN6HumanB6attackEv, symObjAddr: 0x0, symBinAddr: 0x100005BFC, symSize: 0x54 }
  - { offsetInCU: 0x45CD, offset: 0x1560D, size: 0x8, addend: 0x0, symName: __ZN6WeaponC2Ev, symObjAddr: 0x0, symBinAddr: 0x100005CE8, symSize: 0x2C }
  - { offsetInCU: 0x45F7, offset: 0x15637, size: 0x8, addend: 0x0, symName: __ZN6WeaponC1Ev, symObjAddr: 0x58, symBinAddr: 0x100005D14, symSize: 0x2C }
  - { offsetInCU: 0x4621, offset: 0x15661, size: 0x8, addend: 0x0, symName: __ZN6WeaponC2ENSt3__112basic_stringIcNS0_11char_traitsIcEENS0_9allocatorIcEEEE, symObjAddr: 0x84, symBinAddr: 0x100005D40, symSize: 0x2E0 }
  - { offsetInCU: 0x465C, offset: 0x1569C, size: 0x8, addend: 0x0, symName: __ZN6Weapon7setTypeENSt3__112basic_stringIcNS0_11char_traitsIcEENS0_9allocatorIcEEEE, symObjAddr: 0x364, symBinAddr: 0x100006020, symSize: 0x2C }
  - { offsetInCU: 0x4692, offset: 0x156D2, size: 0x8, addend: 0x0, symName: __ZN6WeaponC1ENSt3__112basic_stringIcNS0_11char_traitsIcEENS0_9allocatorIcEEEE, symObjAddr: 0x39C, symBinAddr: 0x10000604C, symSize: 0x34 }
  - { offsetInCU: 0x46CB, offset: 0x1570B, size: 0x8, addend: 0x0, symName: __ZN6WeaponD2Ev, symObjAddr: 0x3D0, symBinAddr: 0x100006080, symSize: 0x2C }
  - { offsetInCU: 0x46F5, offset: 0x15735, size: 0x8, addend: 0x0, symName: __ZN6WeaponD1Ev, symObjAddr: 0x3FC, symBinAddr: 0x1000060AC, symSize: 0x2C }
  - { offsetInCU: 0x471F, offset: 0x1575F, size: 0x8, addend: 0x0, symName: __ZN6Weapon8get_TypeEv, symObjAddr: 0x428, symBinAddr: 0x1000060D8, symSize: 0x1C }
...
